; Function Attrs: mustprogress uwtable
define void @_ZN3gmx9MDModules22assignOptionsToModulesERKNS_18KeyValueTreeObjectEPNS_25IKeyValueTreeErrorHandlerE(ptr nocapture noundef nonnull readonly align 8 dereferenceable(8) %0, ptr noundef nonnull align 8 dereferenceable(72) %1, ptr noundef %2) local_unnamed_addr #0 align 2 personality ptr @__gxx_personality_v0 {
  %4 = alloca %"class.gmx::Options", align 8
  call void @_ZN3gmx7OptionsC1Ev(ptr noundef nonnull align 8 dereferenceable(16) %4)
  %5 = load ptr, ptr %0, align 8
  invoke void @_ZNK3gmx9MDModules4Impl17makeModuleOptionsEPNS_7OptionsE(ptr noundef nonnull align 8 dereferenceable(688) %5, ptr noundef nonnull %4)
          to label %6 unwind label %8

6:                                                ; preds = %3
  invoke void @_ZN3gmx29assignOptionsFromKeyValueTreeEPNS_7OptionsERKNS_18KeyValueTreeObjectEPNS_25IKeyValueTreeErrorHandlerE(ptr noundef nonnull %4, ptr noundef nonnull align 8 dereferenceable(72) %1, ptr noundef %2)
          to label %7 unwind label %8

7:                                                ; preds = %6
  call void @_ZN3gmx7OptionsD1Ev(ptr noundef nonnull align 8 dereferenceable(16) %4) #14
  ret void

8:                                                ; preds = %6, %3
  %9 = landingpad { ptr, i32 }
          cleanup
  call void @_ZN3gmx7OptionsD1Ev(ptr noundef nonnull align 8 dereferenceable(16) %4) #14
  resume { ptr, i32 } %9
}